target datalayout = "e-m:e-p270:32:32-p271:32:32-p272:64:64-i64:64-i128:128-f80:128-n8:16:32:64-S128"
target triple = "x86_64-pc-linux-gnu"

%"class.jsonnet::internal::(anonymous namespace)::Heap" = type { i32, double, i8, %"class.std::vector", i64, i64 }
%"class.std::vector" = type { %"struct.std::_Vector_base" }
%"struct.std::_Vector_base" = type { %"struct.std::_Vector_base<jsonnet::internal::(anonymous namespace)::HeapEntity *, std::allocator<jsonnet::internal::(anonymous namespace)::HeapEntity *>>::_Vector_impl" }
%"struct.std::_Vector_base<jsonnet::internal::(anonymous namespace)::HeapEntity *, std::allocator<jsonnet::internal::(anonymous namespace)::HeapEntity *>>::_Vector_impl" = type { %"struct.std::_Vector_base<jsonnet::internal::(anonymous namespace)::HeapEntity *, std::allocator<jsonnet::internal::(anonymous namespace)::HeapEntity *>>::_Vector_impl_data" }
%"struct.std::_Vector_base<jsonnet::internal::(anonymous namespace)::HeapEntity *, std::allocator<jsonnet::internal::(anonymous namespace)::HeapEntity *>>::_Vector_impl_data" = type { ptr, ptr, ptr }
%"struct.jsonnet::internal::(anonymous namespace)::HeapEntity" = type <{ ptr, i8, i8, [6 x i8] }>

; Function Attrs: mustprogress nounwind uwtable
define internal void @_ZNSt15__new_allocatorIPN7jsonnet8internal12_GLOBAL__N_110HeapEntityEE10deallocateEPS4_m(ptr noundef nonnull align 1 dereferenceable(1) %0, ptr noundef %1, i64 noundef %2) #5 align 2 {
  %4 = alloca ptr, align 8
  %5 = alloca ptr, align 8
  %6 = alloca i64, align 8
  store ptr %0, ptr %4, align 8, !tbaa !618
  store ptr %1, ptr %5, align 8, !tbaa !1069
  store i64 %2, ptr %6, align 8, !tbaa !271
  %7 = load ptr, ptr %5, align 8, !tbaa !1069
  %8 = load i64, ptr %6, align 8, !tbaa !271
  %9 = mul i64 %8, 8
  call void @_ZdlPvm(ptr noundef %7, i64 noundef %9) #34
  ret void
}

; Function Attrs: mustprogress uwtable
define internal void @_ZNSt16allocator_traitsISaIPN7jsonnet8internal12_GLOBAL__N_110HeapEntityEEE10deallocateERS5_PS4_m(ptr noundef nonnull align 1 dereferenceable(1) %0, ptr noundef %1, i64 noundef %2) #4 align 2 {
  %4 = alloca ptr, align 8
  %5 = alloca ptr, align 8
  %6 = alloca i64, align 8
  store ptr %0, ptr %4, align 8, !tbaa !611
  store ptr %1, ptr %5, align 8, !tbaa !1069
  store i64 %2, ptr %6, align 8, !tbaa !271
  %7 = load ptr, ptr %4, align 8, !tbaa !611
  %8 = load ptr, ptr %5, align 8, !tbaa !1069
  %9 = load i64, ptr %6, align 8, !tbaa !271
  call void @_ZNSt15__new_allocatorIPN7jsonnet8internal12_GLOBAL__N_110HeapEntityEE10deallocateEPS4_m(ptr noundef nonnull align 1 dereferenceable(1) %7, ptr noundef %8, i64 noundef %9)
  ret void
}

; Function Attrs: mustprogress nounwind uwtable
define internal void @_ZNSt12_Destroy_auxILb1EE9__destroyIPPN7jsonnet8internal12_GLOBAL__N_110HeapEntityEEEvT_S8_(ptr noundef %0, ptr noundef %1) #5 align 2 {
  %3 = alloca ptr, align 8
  %4 = alloca ptr, align 8
  store ptr %0, ptr %3, align 8, !tbaa !1069
  store ptr %1, ptr %4, align 8, !tbaa !1069
  ret void
}

; Function Attrs: mustprogress nounwind uwtable
define internal void @_ZNSt15__new_allocatorIPN7jsonnet8internal12_GLOBAL__N_110HeapEntityEE7destroyIS4_EEvPT_(ptr noundef nonnull align 1 dereferenceable(1) %0, ptr noundef %1) #5 align 2 {
  %3 = alloca ptr, align 8
  %4 = alloca ptr, align 8
  store ptr %0, ptr %3, align 8, !tbaa !618
  store ptr %1, ptr %4, align 8, !tbaa !1069
  ret void
}

; Function Attrs: mustprogress nounwind uwtable
define internal void @_ZNSt15__new_allocatorIPN7jsonnet8internal12_GLOBAL__N_110HeapEntityEED2Ev(ptr noundef nonnull align 1 dereferenceable(1) %0) unnamed_addr #5 align 2 {
  %2 = alloca ptr, align 8
  store ptr %0, ptr %2, align 8, !tbaa !618
  ret void
}

; Function Attrs: mustprogress uwtable
define internal void @_ZNSt12_Vector_baseIPN7jsonnet8internal12_GLOBAL__N_110HeapEntityESaIS4_EE13_M_deallocateEPS4_m(ptr noundef nonnull align 8 dereferenceable(24) %0, ptr noundef %1, i64 noundef %2) #4 align 2 {
  %4 = alloca ptr, align 8
  %5 = alloca ptr, align 8
  %6 = alloca i64, align 8
  store ptr %0, ptr %4, align 8, !tbaa !607
  store ptr %1, ptr %5, align 8, !tbaa !1069
  store i64 %2, ptr %6, align 8, !tbaa !271
  %7 = load ptr, ptr %4, align 8
  %8 = load ptr, ptr %5, align 8, !tbaa !1069
  %9 = icmp ne ptr %8, null
  br i1 %9, label %10, label %14

10:                                               ; preds = %3
  %11 = getelementptr inbounds nuw %"struct.std::_Vector_base", ptr %7, i32 0, i32 0
  %12 = load ptr, ptr %5, align 8, !tbaa !1069
  %13 = load i64, ptr %6, align 8, !tbaa !271
  call void @_ZNSt16allocator_traitsISaIPN7jsonnet8internal12_GLOBAL__N_110HeapEntityEEE10deallocateERS5_PS4_m(ptr noundef nonnull align 1 dereferenceable(1) %11, ptr noundef %12, i64 noundef %13)
  br label %14

14:                                               ; preds = %10, %3
  ret void
}

; Function Attrs: inlinehint mustprogress uwtable
define internal void @_ZSt8_DestroyIPPN7jsonnet8internal12_GLOBAL__N_110HeapEntityEEvT_S6_(ptr noundef %0, ptr noundef %1) #7 {
  %3 = alloca ptr, align 8
  %4 = alloca ptr, align 8
  store ptr %0, ptr %3, align 8, !tbaa !1069
  store ptr %1, ptr %4, align 8, !tbaa !1069
  %5 = load ptr, ptr %3, align 8, !tbaa !1069
  %6 = load ptr, ptr %4, align 8, !tbaa !1069
  call void @_ZNSt12_Destroy_auxILb1EE9__destroyIPPN7jsonnet8internal12_GLOBAL__N_110HeapEntityEEEvT_S8_(ptr noundef %5, ptr noundef %6)
  ret void
}

; Function Attrs: mustprogress nounwind uwtable
define internal void @_ZNSt16allocator_traitsISaIPN7jsonnet8internal12_GLOBAL__N_110HeapEntityEEE7destroyIS4_EEvRS5_PT_(ptr noundef nonnull align 1 dereferenceable(1) %0, ptr noundef %1) #5 align 2 {
  %3 = alloca ptr, align 8
  %4 = alloca ptr, align 8
  store ptr %0, ptr %3, align 8, !tbaa !611
  store ptr %1, ptr %4, align 8, !tbaa !1069
  %5 = load ptr, ptr %3, align 8, !tbaa !611
  %6 = load ptr, ptr %4, align 8, !tbaa !1069
  call void @_ZNSt15__new_allocatorIPN7jsonnet8internal12_GLOBAL__N_110HeapEntityEE7destroyIS4_EEvPT_(ptr noundef nonnull align 1 dereferenceable(1) %5, ptr noundef %6) #3
  ret void
}

; Function Attrs: noinline noreturn nounwind uwtable
define linkonce_odr hidden void @__clang_call_terminate(ptr noundef %0) #9 comdat {
  %2 = call ptr @__cxa_begin_catch(ptr %0) #3
  call void @_ZSt9terminatev() #32
  unreachable
}

; Function Attrs: mustprogress nounwind uwtable
define internal void @_ZNSt12_Vector_baseIPN7jsonnet8internal12_GLOBAL__N_110HeapEntityESaIS4_EED2Ev(ptr noundef nonnull align 8 dereferenceable(24) %0) unnamed_addr #5 align 2 personality ptr @__gxx_personality_v0 {
  %2 = alloca ptr, align 8
  store ptr %0, ptr %2, align 8, !tbaa !607
  %3 = load ptr, ptr %2, align 8
  %4 = getelementptr inbounds nuw %"struct.std::_Vector_base", ptr %3, i32 0, i32 0
  %5 = getelementptr inbounds nuw %"struct.std::_Vector_base<jsonnet::internal::(anonymous namespace)::HeapEntity *, std::allocator<jsonnet::internal::(anonymous namespace)::HeapEntity *>>::_Vector_impl_data", ptr %4, i32 0, i32 0
  %6 = load ptr, ptr %5, align 8, !tbaa !615
  %7 = getelementptr inbounds nuw %"struct.std::_Vector_base", ptr %3, i32 0, i32 0
  %8 = getelementptr inbounds nuw %"struct.std::_Vector_base<jsonnet::internal::(anonymous namespace)::HeapEntity *, std::allocator<jsonnet::internal::(anonymous namespace)::HeapEntity *>>::_Vector_impl_data", ptr %7, i32 0, i32 2
  %9 = load ptr, ptr %8, align 8, !tbaa !617
  %10 = getelementptr inbounds nuw %"struct.std::_Vector_base", ptr %3, i32 0, i32 0
  %11 = getelementptr inbounds nuw %"struct.std::_Vector_base<jsonnet::internal::(anonymous namespace)::HeapEntity *, std::allocator<jsonnet::internal::(anonymous namespace)::HeapEntity *>>::_Vector_impl_data", ptr %10, i32 0, i32 0
  %12 = load ptr, ptr %11, align 8, !tbaa !615
  %13 = ptrtoint ptr %9 to i64
  %14 = ptrtoint ptr %12 to i64
  %15 = sub i64 %13, %14
  %16 = sdiv exact i64 %15, 8
  invoke void @_ZNSt12_Vector_baseIPN7jsonnet8internal12_GLOBAL__N_110HeapEntityESaIS4_EE13_M_deallocateEPS4_m(ptr noundef nonnull align 8 dereferenceable(24) %3, ptr noundef %6, i64 noundef %16)
          to label %17 unwind label %19

17:                                               ; preds = %1
  %18 = getelementptr inbounds nuw %"struct.std::_Vector_base", ptr %3, i32 0, i32 0
  call void @_ZNSt15__new_allocatorIPN7jsonnet8internal12_GLOBAL__N_110HeapEntityEED2Ev(ptr noundef nonnull align 8 dereferenceable(24) %18) #3
  ret void

19:                                               ; preds = %1
  %20 = landingpad { ptr, i32 }
          catch ptr null
  %21 = extractvalue { ptr, i32 } %20, 0
  call void @__clang_call_terminate(ptr %21) #32
  unreachable
}

; Function Attrs: inlinehint mustprogress uwtable
define internal void @_ZSt8_DestroyIPPN7jsonnet8internal12_GLOBAL__N_110HeapEntityES4_EvT_S6_RSaIT0_E(ptr noundef %0, ptr noundef %1, ptr noundef nonnull align 1 dereferenceable(1) %2) #7 {
  %4 = alloca ptr, align 8
  %5 = alloca ptr, align 8
  %6 = alloca ptr, align 8
  store ptr %0, ptr %4, align 8, !tbaa !1069
  store ptr %1, ptr %5, align 8, !tbaa !1069
  store ptr %2, ptr %6, align 8, !tbaa !611
  %7 = load ptr, ptr %4, align 8, !tbaa !1069
  %8 = load ptr, ptr %5, align 8, !tbaa !1069
  call void @_ZSt8_DestroyIPPN7jsonnet8internal12_GLOBAL__N_110HeapEntityEEvT_S6_(ptr noundef %7, ptr noundef %8)
  ret void
}

; Function Attrs: mustprogress nounwind uwtable
define internal noundef nonnull align 1 dereferenceable(1) ptr @_ZNSt12_Vector_baseIPN7jsonnet8internal12_GLOBAL__N_110HeapEntityESaIS4_EE19_M_get_Tp_allocatorEv(ptr noundef nonnull align 8 dereferenceable(24) %0) #5 align 2 {
  %2 = alloca ptr, align 8
  store ptr %0, ptr %2, align 8, !tbaa !607
  %3 = load ptr, ptr %2, align 8
  %4 = getelementptr inbounds nuw %"struct.std::_Vector_base", ptr %3, i32 0, i32 0
  ret ptr %4
}

; Function Attrs: mustprogress nounwind uwtable
define internal void @_ZNSt6vectorIPN7jsonnet8internal12_GLOBAL__N_110HeapEntityESaIS4_EE8pop_backEv(ptr noundef nonnull align 8 dereferenceable(24) %0) #5 align 2 {
  %2 = alloca ptr, align 8
  store ptr %0, ptr %2, align 8, !tbaa !605
  %3 = load ptr, ptr %2, align 8
  %4 = getelementptr inbounds nuw %"struct.std::_Vector_base", ptr %3, i32 0, i32 0
  %5 = getelementptr inbounds nuw %"struct.std::_Vector_base<jsonnet::internal::(anonymous namespace)::HeapEntity *, std::allocator<jsonnet::internal::(anonymous namespace)::HeapEntity *>>::_Vector_impl_data", ptr %4, i32 0, i32 1
  %6 = load ptr, ptr %5, align 8, !tbaa !616
  %7 = getelementptr inbounds ptr, ptr %6, i32 -1
  store ptr %7, ptr %5, align 8, !tbaa !616
  %8 = getelementptr inbounds nuw %"struct.std::_Vector_base", ptr %3, i32 0, i32 0
  %9 = getelementptr inbounds nuw %"struct.std::_Vector_base", ptr %3, i32 0, i32 0
  %10 = getelementptr inbounds nuw %"struct.std::_Vector_base<jsonnet::internal::(anonymous namespace)::HeapEntity *, std::allocator<jsonnet::internal::(anonymous namespace)::HeapEntity *>>::_Vector_impl_data", ptr %9, i32 0, i32 1
  %11 = load ptr, ptr %10, align 8, !tbaa !616
  call void @_ZNSt16allocator_traitsISaIPN7jsonnet8internal12_GLOBAL__N_110HeapEntityEEE7destroyIS4_EEvRS5_PT_(ptr noundef nonnull align 1 dereferenceable(1) %8, ptr noundef %11) #3
  ret void
}

; Function Attrs: mustprogress nounwind uwtable
define internal noundef nonnull align 8 dereferenceable(8) ptr @_ZNSt6vectorIPN7jsonnet8internal12_GLOBAL__N_110HeapEntityESaIS4_EEixEm(ptr noundef nonnull align 8 dereferenceable(24) %0, i64 noundef %1) #5 align 2 {
  %3 = alloca ptr, align 8
  %4 = alloca i64, align 8
  store ptr %0, ptr %3, align 8, !tbaa !605
  store i64 %1, ptr %4, align 8, !tbaa !271
  %5 = load ptr, ptr %3, align 8
  %6 = getelementptr inbounds nuw %"struct.std::_Vector_base", ptr %5, i32 0, i32 0
  %7 = getelementptr inbounds nuw %"struct.std::_Vector_base<jsonnet::internal::(anonymous namespace)::HeapEntity *, std::allocator<jsonnet::internal::(anonymous namespace)::HeapEntity *>>::_Vector_impl_data", ptr %6, i32 0, i32 0
  %8 = load ptr, ptr %7, align 8, !tbaa !615
  %9 = load i64, ptr %4, align 8, !tbaa !271
  %10 = getelementptr inbounds nuw ptr, ptr %8, i64 %9
  ret ptr %10
}

; Function Attrs: mustprogress nounwind uwtable
define internal noundef i64 @_ZNKSt6vectorIPN7jsonnet8internal12_GLOBAL__N_110HeapEntityESaIS4_EE4sizeEv(ptr noundef nonnull align 8 dereferenceable(24) %0) #5 align 2 {
  %2 = alloca ptr, align 8
  store ptr %0, ptr %2, align 8, !tbaa !605
  %3 = load ptr, ptr %2, align 8
  %4 = getelementptr inbounds nuw %"struct.std::_Vector_base", ptr %3, i32 0, i32 0
  %5 = getelementptr inbounds nuw %"struct.std::_Vector_base<jsonnet::internal::(anonymous namespace)::HeapEntity *, std::allocator<jsonnet::internal::(anonymous namespace)::HeapEntity *>>::_Vector_impl_data", ptr %4, i32 0, i32 1
  %6 = load ptr, ptr %5, align 8, !tbaa !616
  %7 = getelementptr inbounds nuw %"struct.std::_Vector_base", ptr %3, i32 0, i32 0
  %8 = getelementptr inbounds nuw %"struct.std::_Vector_base<jsonnet::internal::(anonymous namespace)::HeapEntity *, std::allocator<jsonnet::internal::(anonymous namespace)::HeapEntity *>>::_Vector_impl_data", ptr %7, i32 0, i32 0
  %9 = load ptr, ptr %8, align 8, !tbaa !615
  %10 = ptrtoint ptr %6 to i64
  %11 = ptrtoint ptr %9 to i64
  %12 = sub i64 %10, %11
  %13 = sdiv exact i64 %12, 8
  ret i64 %13
}

; Function Attrs: mustprogress nounwind uwtable
define internal void @_ZNSt6vectorIPN7jsonnet8internal12_GLOBAL__N_110HeapEntityESaIS4_EED2Ev(ptr noundef nonnull align 8 dereferenceable(24) %0) unnamed_addr #5 align 2 personality ptr @__gxx_personality_v0 {
  %2 = alloca ptr, align 8
  store ptr %0, ptr %2, align 8, !tbaa !605
  %3 = load ptr, ptr %2, align 8
  %4 = getelementptr inbounds nuw %"struct.std::_Vector_base", ptr %3, i32 0, i32 0
  %5 = getelementptr inbounds nuw %"struct.std::_Vector_base<jsonnet::internal::(anonymous namespace)::HeapEntity *, std::allocator<jsonnet::internal::(anonymous namespace)::HeapEntity *>>::_Vector_impl_data", ptr %4, i32 0, i32 0
  %6 = load ptr, ptr %5, align 8, !tbaa !615
  %7 = getelementptr inbounds nuw %"struct.std::_Vector_base", ptr %3, i32 0, i32 0
  %8 = getelementptr inbounds nuw %"struct.std::_Vector_base<jsonnet::internal::(anonymous namespace)::HeapEntity *, std::allocator<jsonnet::internal::(anonymous namespace)::HeapEntity *>>::_Vector_impl_data", ptr %7, i32 0, i32 1
  %9 = load ptr, ptr %8, align 8, !tbaa !616
  %10 = call noundef nonnull align 1 dereferenceable(1) ptr @_ZNSt12_Vector_baseIPN7jsonnet8internal12_GLOBAL__N_110HeapEntityESaIS4_EE19_M_get_Tp_allocatorEv(ptr noundef nonnull align 8 dereferenceable(24) %3) #3
  invoke void @_ZSt8_DestroyIPPN7jsonnet8internal12_GLOBAL__N_110HeapEntityES4_EvT_S6_RSaIT0_E(ptr noundef %6, ptr noundef %9, ptr noundef nonnull align 1 dereferenceable(1) %10)
          to label %11 unwind label %12

11:                                               ; preds = %1
  call void @_ZNSt12_Vector_baseIPN7jsonnet8internal12_GLOBAL__N_110HeapEntityESaIS4_EED2Ev(ptr noundef nonnull align 8 dereferenceable(24) %3) #3
  ret void

12:                                               ; preds = %1
  %13 = landingpad { ptr, i32 }
          catch ptr null
  %14 = extractvalue { ptr, i32 } %13, 0
  call void @__clang_call_terminate(ptr %14) #32
  unreachable
}

; Function Attrs: mustprogress nounwind uwtable
define internal void @_ZN7jsonnet8internal12_GLOBAL__N_14Heap5sweepEv(ptr noundef nonnull align 8 dereferenceable(64) %0) #5 align 2 {
  %2 = alloca ptr, align 8
  %3 = alloca i64, align 8
  %4 = alloca ptr, align 8
  store ptr %0, ptr %2, align 8, !tbaa !544
  %5 = load ptr, ptr %2, align 8
  %6 = getelementptr inbounds nuw %"class.jsonnet::internal::(anonymous namespace)::Heap", ptr %5, i32 0, i32 2
  %7 = load i8, ptr %6, align 8, !tbaa !548
  %8 = add i8 %7, 1
  store i8 %8, ptr %6, align 8, !tbaa !548
  call void @llvm.lifetime.start.p0(i64 8, ptr %3) #3
  store i64 0, ptr %3, align 8, !tbaa !271
  br label %9

9:                                                ; preds = %56, %1
  %10 = load i64, ptr %3, align 8, !tbaa !271
  %11 = getelementptr inbounds nuw %"class.jsonnet::internal::(anonymous namespace)::Heap", ptr %5, i32 0, i32 3
  %12 = call noundef i64 @_ZNKSt6vectorIPN7jsonnet8internal12_GLOBAL__N_110HeapEntityESaIS4_EE4sizeEv(ptr noundef nonnull align 8 dereferenceable(24) %11) #3
  %13 = icmp ult i64 %10, %12
  br i1 %13, label %15, label %14

14:                                               ; preds = %9
  call void @llvm.lifetime.end.p0(i64 8, ptr %3) #3
  br label %59

15:                                               ; preds = %9
  call void @llvm.lifetime.start.p0(i64 8, ptr %4) #3
  %16 = getelementptr inbounds nuw %"class.jsonnet::internal::(anonymous namespace)::Heap", ptr %5, i32 0, i32 3
  %17 = load i64, ptr %3, align 8, !tbaa !271
  %18 = call noundef nonnull align 8 dereferenceable(8) ptr @_ZNSt6vectorIPN7jsonnet8internal12_GLOBAL__N_110HeapEntityESaIS4_EEixEm(ptr noundef nonnull align 8 dereferenceable(24) %16, i64 noundef %17) #3
  %19 = load ptr, ptr %18, align 8, !tbaa !569
  store ptr %19, ptr %4, align 8, !tbaa !569
  %20 = load ptr, ptr %4, align 8, !tbaa !569
  %21 = getelementptr inbounds nuw %"struct.jsonnet::internal::(anonymous namespace)::HeapEntity", ptr %20, i32 0, i32 1
  %22 = load i8, ptr %21, align 8, !tbaa !1043
  %23 = zext i8 %22 to i32
  %24 = getelementptr inbounds nuw %"class.jsonnet::internal::(anonymous namespace)::Heap", ptr %5, i32 0, i32 2
  %25 = load i8, ptr %24, align 8, !tbaa !548
  %26 = zext i8 %25 to i32
  %27 = icmp ne i32 %23, %26
  br i1 %27, label %28, label %55

28:                                               ; preds = %15
  %29 = load ptr, ptr %4, align 8, !tbaa !569
  %30 = icmp eq ptr %29, null
  br i1 %30, label %35, label %31

31:                                               ; preds = %28
  %32 = load ptr, ptr %29, align 8, !tbaa !310
  %33 = getelementptr inbounds ptr, ptr %32, i64 1
  %34 = load ptr, ptr %33, align 8
  call void %34(ptr noundef nonnull align 8 dereferenceable(10) %29) #3
  br label %35

35:                                               ; preds = %31, %28
  %36 = load i64, ptr %3, align 8, !tbaa !271
  %37 = getelementptr inbounds nuw %"class.jsonnet::internal::(anonymous namespace)::Heap", ptr %5, i32 0, i32 3
  %38 = call noundef i64 @_ZNKSt6vectorIPN7jsonnet8internal12_GLOBAL__N_110HeapEntityESaIS4_EE4sizeEv(ptr noundef nonnull align 8 dereferenceable(24) %37) #3
  %39 = sub i64 %38, 1
  %40 = icmp ne i64 %36, %39
  br i1 %40, label %41, label %51

41:                                               ; preds = %35
  %42 = getelementptr inbounds nuw %"class.jsonnet::internal::(anonymous namespace)::Heap", ptr %5, i32 0, i32 3
  %43 = getelementptr inbounds nuw %"class.jsonnet::internal::(anonymous namespace)::Heap", ptr %5, i32 0, i32 3
  %44 = call noundef i64 @_ZNKSt6vectorIPN7jsonnet8internal12_GLOBAL__N_110HeapEntityESaIS4_EE4sizeEv(ptr noundef nonnull align 8 dereferenceable(24) %43) #3
  %45 = sub i64 %44, 1
  %46 = call noundef nonnull align 8 dereferenceable(8) ptr @_ZNSt6vectorIPN7jsonnet8internal12_GLOBAL__N_110HeapEntityESaIS4_EEixEm(ptr noundef nonnull align 8 dereferenceable(24) %42, i64 noundef %45) #3
  %47 = load ptr, ptr %46, align 8, !tbaa !569
  %48 = getelementptr inbounds nuw %"class.jsonnet::internal::(anonymous namespace)::Heap", ptr %5, i32 0, i32 3
  %49 = load i64, ptr %3, align 8, !tbaa !271
  %50 = call noundef nonnull align 8 dereferenceable(8) ptr @_ZNSt6vectorIPN7jsonnet8internal12_GLOBAL__N_110HeapEntityESaIS4_EEixEm(ptr noundef nonnull align 8 dereferenceable(24) %48, i64 noundef %49) #3
  store ptr %47, ptr %50, align 8, !tbaa !569
  br label %51

51:                                               ; preds = %41, %35
  %52 = getelementptr inbounds nuw %"class.jsonnet::internal::(anonymous namespace)::Heap", ptr %5, i32 0, i32 3
  call void @_ZNSt6vectorIPN7jsonnet8internal12_GLOBAL__N_110HeapEntityESaIS4_EE8pop_backEv(ptr noundef nonnull align 8 dereferenceable(24) %52) #3
  %53 = load i64, ptr %3, align 8, !tbaa !271
  %54 = add i64 %53, -1
  store i64 %54, ptr %3, align 8, !tbaa !271
  br label %55

55:                                               ; preds = %51, %15
  call void @llvm.lifetime.end.p0(i64 8, ptr %4) #3
  br label %56

56:                                               ; preds = %55
  %57 = load i64, ptr %3, align 8, !tbaa !271
  %58 = add i64 %57, 1
  store i64 %58, ptr %3, align 8, !tbaa !271
  br label %9, !llvm.loop !1068

59:                                               ; preds = %14
  %60 = getelementptr inbounds nuw %"class.jsonnet::internal::(anonymous namespace)::Heap", ptr %5, i32 0, i32 3
  %61 = call noundef i64 @_ZNKSt6vectorIPN7jsonnet8internal12_GLOBAL__N_110HeapEntityESaIS4_EE4sizeEv(ptr noundef nonnull align 8 dereferenceable(24) %60) #3
  %62 = getelementptr inbounds nuw %"class.jsonnet::internal::(anonymous namespace)::Heap", ptr %5, i32 0, i32 5
  store i64 %61, ptr %62, align 8, !tbaa !550
  %63 = getelementptr inbounds nuw %"class.jsonnet::internal::(anonymous namespace)::Heap", ptr %5, i32 0, i32 4
  store i64 %61, ptr %63, align 8, !tbaa !549
  ret void
}

; Function Attrs: mustprogress nounwind uwtable
define internal void @_ZN7jsonnet8internal12_GLOBAL__N_14HeapD2Ev(ptr noundef nonnull align 8 dereferenceable(64) %0) unnamed_addr #5 align 2 {
  %2 = alloca ptr, align 8
  store ptr %0, ptr %2, align 8, !tbaa !544
  %3 = load ptr, ptr %2, align 8
  call void @_ZN7jsonnet8internal12_GLOBAL__N_14Heap5sweepEv(ptr noundef nonnull align 8 dereferenceable(64) %3)
  %4 = getelementptr inbounds nuw %"class.jsonnet::internal::(anonymous namespace)::Heap", ptr %3, i32 0, i32 3
  call void @_ZNSt6vectorIPN7jsonnet8internal12_GLOBAL__N_110HeapEntityESaIS4_EED2Ev(ptr noundef nonnull align 8 dereferenceable(24) %4) #3
  ret void
}