; Function Attrs: mustprogress nounwind uwtable
define internal fastcc void @_ZN7jsonnet8internal12_GLOBAL__N_14HeapD2Ev(ptr noundef nonnull align 8 captures(none) dereferenceable(64) %0) unnamed_addr #3 align 2 personality ptr @__gxx_personality_v0 {
  %2 = getelementptr inbounds nuw i8, ptr %0, i64 16
  %3 = load i8, ptr %2, align 8, !tbaa !42
  %4 = add i8 %3, 1
  store i8 %4, ptr %2, align 8, !tbaa !42
  %5 = getelementptr inbounds nuw i8, ptr %0, i64 24
  %6 = getelementptr inbounds nuw i8, ptr %0, i64 32
  %.val20.i = load ptr, ptr %5, align 8
  %.val1021.i = load ptr, ptr %6, align 8, !tbaa !155
  %.not24.i = icmp eq ptr %.val1021.i, %.val20.i
  br i1 %.not24.i, label %_ZN7jsonnet8internal12_GLOBAL__N_14Heap5sweepEv.exit, label %.lr.ph.i

.lr.ph.i:                                         ; preds = %1, %28
  %.val1028.i = phi ptr [ %.val10.i, %28 ], [ %.val1021.i, %1 ]
  %.val27.i = phi ptr [ %.val.i, %28 ], [ %.val20.i, %1 ]
  %.022.i = phi i64 [ %.1.i, %28 ], [ 0, %1 ]
  %7 = getelementptr inbounds nuw ptr, ptr %.val27.i, i64 %.022.i
  %8 = load ptr, ptr %7, align 8, !tbaa !157
  %9 = getelementptr inbounds nuw i8, ptr %8, i64 8
  %10 = load i8, ptr %9, align 8, !tbaa !160
  %11 = load i8, ptr %2, align 8, !tbaa !42
  %.not.i = icmp eq i8 %10, %11
  br i1 %.not.i, label %.lr.ph._crit_edge.i, label %13

.lr.ph._crit_edge.i:                              ; preds = %.lr.ph.i
  %.pre.i = ptrtoint ptr %.val27.i to i64
  %12 = add nuw i64 %.022.i, 1
  br label %28

13:                                               ; preds = %.lr.ph.i
  %14 = load ptr, ptr %8, align 8, !tbaa !43
  %15 = getelementptr inbounds nuw i8, ptr %14, i64 8
  %16 = load ptr, ptr %15, align 8
  tail call void %16(ptr noundef nonnull align 8 dereferenceable(10) %8) #38
  %.val11.i = load ptr, ptr %5, align 8, !tbaa !159
  %.val12.i = load ptr, ptr %6, align 8, !tbaa !155
  %17 = ptrtoint ptr %.val12.i to i64
  %18 = ptrtoint ptr %.val11.i to i64
  %19 = sub i64 %17, %18
  %20 = ashr exact i64 %19, 3
  %21 = add nsw i64 %20, -1
  %.not9.i = icmp eq i64 %.022.i, %21
  br i1 %.not9.i, label %26, label %22

22:                                               ; preds = %13
  %23 = getelementptr inbounds nuw ptr, ptr %.val11.i, i64 %21
  %24 = load ptr, ptr %23, align 8, !tbaa !157
  %25 = getelementptr inbounds nuw ptr, ptr %.val11.i, i64 %.022.i
  store ptr %24, ptr %25, align 8, !tbaa !157
  br label %26

26:                                               ; preds = %22, %13
  %27 = getelementptr inbounds i8, ptr %.val12.i, i64 -8
  store ptr %27, ptr %6, align 8, !tbaa !155
  br label %28

28:                                               ; preds = %26, %.lr.ph._crit_edge.i
  %.pre-phi.i = phi i64 [ %.pre.i, %.lr.ph._crit_edge.i ], [ %18, %26 ]
  %.val10.i = phi ptr [ %.val1028.i, %.lr.ph._crit_edge.i ], [ %27, %26 ]
  %.val.i = phi ptr [ %.val27.i, %.lr.ph._crit_edge.i ], [ %.val11.i, %26 ]
  %.1.i = phi i64 [ %12, %.lr.ph._crit_edge.i ], [ %.022.i, %26 ]
  %29 = ptrtoint ptr %.val10.i to i64
  %30 = sub i64 %29, %.pre-phi.i
  %31 = ashr exact i64 %30, 3
  %32 = icmp ult i64 %.1.i, %31
  br i1 %32, label %.lr.ph.i, label %_ZN7jsonnet8internal12_GLOBAL__N_14Heap5sweepEv.exitthread-pre-split, !llvm.loop !171

_ZN7jsonnet8internal12_GLOBAL__N_14Heap5sweepEv.exitthread-pre-split: ; preds = %28
  %.val.pr = load ptr, ptr %5, align 8
  br label %_ZN7jsonnet8internal12_GLOBAL__N_14Heap5sweepEv.exit

_ZN7jsonnet8internal12_GLOBAL__N_14Heap5sweepEv.exit: ; preds = %_ZN7jsonnet8internal12_GLOBAL__N_14Heap5sweepEv.exitthread-pre-split, %1
  %.val = phi ptr [ %.val.pr, %_ZN7jsonnet8internal12_GLOBAL__N_14Heap5sweepEv.exitthread-pre-split ], [ %.val20.i, %1 ]
  %.lcssa.i = phi i64 [ %31, %_ZN7jsonnet8internal12_GLOBAL__N_14Heap5sweepEv.exitthread-pre-split ], [ 0, %1 ]
  %33 = getelementptr inbounds nuw i8, ptr %0, i64 56
  store i64 %.lcssa.i, ptr %33, align 8, !tbaa !161
  %34 = getelementptr inbounds nuw i8, ptr %0, i64 48
  store i64 %.lcssa.i, ptr %34, align 8, !tbaa !162
  %.not.i.i.i = icmp eq ptr %.val, null
  br i1 %.not.i.i.i, label %_ZNSt6vectorIPN7jsonnet8internal12_GLOBAL__N_110HeapEntityESaIS4_EED2Ev.exit, label %35

35:                                               ; preds = %_ZN7jsonnet8internal12_GLOBAL__N_14Heap5sweepEv.exit
  %36 = getelementptr inbounds nuw i8, ptr %0, i64 40
  %.val1 = load ptr, ptr %36, align 8
  %37 = ptrtoint ptr %.val1 to i64
  %38 = ptrtoint ptr %.val to i64
  %39 = sub i64 %37, %38
  tail call void @_ZdlPvm(ptr noundef nonnull %.val, i64 noundef %39) #39
  br label %_ZNSt6vectorIPN7jsonnet8internal12_GLOBAL__N_110HeapEntityESaIS4_EED2Ev.exit

_ZNSt6vectorIPN7jsonnet8internal12_GLOBAL__N_110HeapEntityESaIS4_EED2Ev.exit: ; preds = %_ZN7jsonnet8internal12_GLOBAL__N_14Heap5sweepEv.exit, %35
  ret void
}